; ModuleID = 'source-C-CXX/55/2166.c'
source_filename = "source-C-CXX/55/2166.c"
target datalayout = "e-m:e-p270:32:32-p271:32:32-p272:64:64-i64:64-f80:128-n8:16:32:64-S128"
target triple = "x86_64-pc-linux-gnu"

@.str = private unnamed_addr constant [3 x i8] c"%d\00", align 1
@.str.1 = private unnamed_addr constant [12 x i8] c"%d%d%d%d%d\0A\00", align 1
@.str.2 = private unnamed_addr constant [10 x i8] c"%d%d%d%d\0A\00", align 1
@.str.3 = private unnamed_addr constant [8 x i8] c"%d%d%d\0A\00", align 1
@.str.4 = private unnamed_addr constant [6 x i8] c"%d%d\0A\00", align 1
@.str.5 = private unnamed_addr constant [4 x i8] c"%d\0A\00", align 1

; Function Attrs: nofree nounwind sspstrong uwtable
define dso_local i32 @main() local_unnamed_addr #0 {
  %1 = alloca i32, align 4
  %2 = bitcast i32* %1 to i8*
  call void @llvm.lifetime.start.p0i8(i64 4, i8* nonnull %2) #3
  %3 = call i32 (i8*, ...) @__isoc99_scanf(i8* getelementptr inbounds ([3 x i8], [3 x i8]* @.str, i64 0, i64 0), i32* nonnull %1)
  %4 = load i32, i32* %1, align 4, !tbaa !5
  %5 = add i32 %4, -10000
  %6 = icmp ult i32 %5, 90000
  br i1 %6, label %7, label %21

7:                                                ; preds = %0
  %8 = udiv i32 %4, 10000
  %9 = mul nsw i32 %8, -10000
  %10 = add nsw i32 %9, %4
  %11 = sdiv i32 %10, 1000
  %12 = mul nsw i32 %11, -1000
  %13 = add nsw i32 %12, %10
  %14 = sdiv i32 %13, 100
  %15 = mul nsw i32 %14, -100
  %16 = add nsw i32 %15, %13
  %17 = sdiv i32 %16, 10
  %18 = mul nsw i32 %17, -10
  %19 = add nsw i32 %18, %16
  %20 = call i32 (i8*, ...) @printf(i8* nonnull dereferenceable(1) getelementptr inbounds ([12 x i8], [12 x i8]* @.str.1, i64 0, i64 0), i32 %19, i32 %17, i32 %14, i32 %11, i32 %8)
  br label %71

21:                                               ; preds = %0
  %22 = add i32 %4, -1000
  %23 = icmp ult i32 %22, 9000
  br i1 %23, label %24, label %41

24:                                               ; preds = %21
  %25 = trunc i32 %4 to i16
  %26 = udiv i16 %25, 1000
  %27 = zext i16 %26 to i32
  %28 = mul nsw i32 %27, -1000
  %29 = add nsw i32 %28, %4
  %30 = trunc i32 %29 to i16
  %31 = sdiv i16 %30, 100
  %32 = sext i16 %31 to i32
  %33 = mul nsw i32 %32, -100
  %34 = add nsw i32 %33, %29
  %35 = trunc i32 %34 to i16
  %36 = sdiv i16 %35, 10
  %37 = sext i16 %36 to i32
  %38 = mul nsw i32 %37, -10
  %39 = add nsw i32 %38, %34
  %40 = call i32 (i8*, ...) @printf(i8* nonnull dereferenceable(1) getelementptr inbounds ([10 x i8], [10 x i8]* @.str.2, i64 0, i64 0), i32 %39, i32 %37, i32 %32, i32 %27)
  br label %71

41:                                               ; preds = %21
  %42 = add i32 %4, -100
  %43 = icmp ult i32 %42, 900
  br i1 %43, label %44, label %56

44:                                               ; preds = %41
  %45 = trunc i32 %4 to i16
  %46 = udiv i16 %45, 100
  %47 = zext i16 %46 to i32
  %48 = mul nsw i32 %47, -100
  %49 = add nsw i32 %48, %4
  %50 = trunc i32 %49 to i16
  %51 = sdiv i16 %50, 10
  %52 = sext i16 %51 to i32
  %53 = mul nsw i32 %52, -10
  %54 = add nsw i32 %53, %49
  %55 = call i32 (i8*, ...) @printf(i8* nonnull dereferenceable(1) getelementptr inbounds ([8 x i8], [8 x i8]* @.str.3, i64 0, i64 0), i32 %54, i32 %52, i32 %47)
  br label %71

56:                                               ; preds = %41
  %57 = add i32 %4, -10
  %58 = icmp ult i32 %57, 90
  br i1 %58, label %59, label %66

59:                                               ; preds = %56
  %60 = trunc i32 %4 to i8
  %61 = udiv i8 %60, 10
  %62 = zext i8 %61 to i32
  %63 = mul nsw i32 %62, -10
  %64 = add nsw i32 %63, %4
  %65 = call i32 (i8*, ...) @printf(i8* nonnull dereferenceable(1) getelementptr inbounds ([6 x i8], [6 x i8]* @.str.4, i64 0, i64 0), i32 %64, i32 %62)
  br label %71

66:                                               ; preds = %56
  %67 = add i32 %4, -1
  %68 = icmp ult i32 %67, 9
  br i1 %68, label %69, label %71

69:                                               ; preds = %66
  %70 = call i32 (i8*, ...) @printf(i8* nonnull dereferenceable(1) getelementptr inbounds ([4 x i8], [4 x i8]* @.str.5, i64 0, i64 0), i32 %4)
  br label %71

71:                                               ; preds = %24, %59, %69, %66, %44, %7
  call void @llvm.lifetime.end.p0i8(i64 4, i8* nonnull %2) #3
  ret i32 0
}

; Function Attrs: argmemonly mustprogress nofree nosync nounwind willreturn
declare void @llvm.lifetime.start.p0i8(i64 immarg, i8* nocapture) #1

; Function Attrs: nofree nounwind
declare noundef i32 @__isoc99_scanf(i8* nocapture noundef readonly, ...) local_unnamed_addr #2

; Function Attrs: nofree nounwind
declare noundef i32 @printf(i8* nocapture noundef readonly, ...) local_unnamed_addr #2

; Function Attrs: argmemonly mustprogress nofree nosync nounwind willreturn
declare void @llvm.lifetime.end.p0i8(i64 immarg, i8* nocapture) #1


!llvm.module.flags = !{!0, !1, !2, !3}
!llvm.ident = !{!4}

!0 = !{i32 1, !"wchar_size", i32 4}
!1 = !{i32 7, !"PIC Level", i32 2}
!2 = !{i32 7, !"PIE Level", i32 2}
!3 = !{i32 7, !"uwtable", i32 1}
!4 = !{!"clang version 13.0.0"}
!5 = !{!6, !6, i64 0}
!6 = !{!"int", !7, i64 0}
!7 = !{!"omnipotent char", !8, i64 0}
!8 = !{!"Simple C/C++ TBAA"}
